Certificate:
    Data:
        Version: 3 (0x2)
        Serial Number: 1 (0x1)
    Signature Algorithm: sha256WithRSAEncryption
        Issuer: C=FR, CN=CA
        Validity
            Not Before: Oct 28 06:08:10 2014 GMT
            Not After : Oct 28 06:08:10 2015 GMT
        Subject: C=FR, CN=spider_server
        Subject Public Key Info:
            Public Key Algorithm: rsaEncryption
                Public-Key: (2048 bit)
                Modulus:
                    00:cf:2d:50:58:f8:4e:5c:aa:f4:ee:23:3d:ea:1c:
                    9d:5e:76:bd:93:48:d8:99:48:73:95:79:fb:1b:04:
                    0b:d1:c8:62:17:20:eb:51:2d:9b:e3:b7:6c:a5:6d:
                    3f:50:43:f1:d1:c1:46:a0:09:73:0a:a8:aa:59:e2:
                    48:46:97:6d:eb:cd:ff:81:4f:1b:6e:64:0c:05:76:
                    d7:f8:cb:ec:90:7c:54:e5:9b:f4:e7:20:8e:6a:d6:
                    a7:b4:04:36:fd:5a:f0:c6:58:2e:6a:f1:a6:79:be:
                    05:63:99:12:02:71:e6:42:93:67:28:c8:e8:19:ab:
                    05:79:51:18:eb:69:ab:0d:ad:53:10:4a:8a:49:d2:
                    00:c7:3b:53:32:68:62:3b:4c:14:a9:53:7e:c6:4c:
                    e6:d5:5f:0d:03:cd:43:f8:24:0e:24:4c:41:ca:44:
                    ec:7f:45:63:5c:50:4e:cc:09:2f:e6:4b:77:bc:fb:
                    2f:db:c4:8f:45:00:2e:12:dd:83:e8:b9:75:b0:ff:
                    e0:95:24:13:33:1e:2b:19:ef:ab:70:d8:8d:ed:7a:
                    04:96:56:27:5b:dc:39:77:7c:ea:60:a3:3e:4a:69:
                    4d:d0:ec:78:e5:8a:22:5f:21:2a:31:d3:70:4a:65:
                    2d:7b:9f:e1:e3:3f:c5:02:0b:d8:ed:ba:57:c6:1e:
                    da:51
                Exponent: 65537 (0x10001)
        X509v3 extensions:
            X509v3 Basic Constraints: 
                CA:FALSE
            Netscape Comment: 
                OpenSSL Generated Certificate
            X509v3 Subject Key Identifier: 
                47:BF:77:00:FA:F7:F2:34:3F:D6:B2:37:77:79:59:92:AB:61:2E:0D
            X509v3 Authority Key Identifier: 
                keyid:97:8A:39:0E:61:5A:30:F2:EE:B5:B4:3D:05:3A:A0:6A:25:6E:CD:3F

    Signature Algorithm: sha256WithRSAEncryption
         83:69:c6:b4:e7:5e:da:d2:74:d1:38:b1:b4:0d:3b:9a:ee:46:
         49:87:4b:c9:8b:f0:25:f9:1a:97:78:4d:8e:49:e2:5d:18:d1:
         29:a2:b0:4f:3b:fa:d8:47:09:89:6f:ad:93:7c:c2:7b:83:c1:
         08:c6:75:eb:db:24:1b:9e:5e:82:83:34:55:33:cd:e3:cc:64:
         5d:80:32:ae:ac:d3:c4:ad:ab:62:fd:66:e5:3d:b5:6c:fd:3c:
         9d:e9:8f:03:ba:a6:8e:87:f5:86:28:03:93:27:2d:eb:76:ba:
         48:6a:9d:69:56:60:89:02:c5:66:f8:c0:fb:4f:e9:91:50:e9:
         de:73:8e:fa:30:d5:78:f7:1b:00:82:5d:7e:b7:64:da:53:f2:
         0f:2f:db:44:5a:38:6e:d4:dd:02:c4:af:9d:34:58:4a:ac:c6:
         53:5f:cd:e7:21:2e:67:dd:ea:78:bc:08:c2:d0:29:1f:47:01:
         d1:2d:e4:b4:1a:0b:12:07:fc:62:ff:eb:e2:26:55:95:84:c6:
         e1:90:07:e8:99:11:a9:e9:9b:d2:11:8d:e8:61:c8:9b:61:a2:
         e9:99:0f:3c:bc:20:96:a8:fe:bf:e0:10:39:33:0d:3c:00:e6:
         95:c7:fd:a7:e9:ed:bc:a0:72:3e:a9:75:3a:3f:47:91:7f:2f:
         d1:96:0a:94:b5:57:fb:9d:5b:43:c6:2d:c8:82:cb:c9:8f:a6:
         b1:be:be:e2:6e:d9:9f:0e:9d:6a:d0:d7:bc:ea:8d:cf:ce:7f:
         53:0d:94:ca:c1:dd:23:98:66:e8:84:5e:b9:92:02:5f:5e:83:
         31:22:fc:c1:ee:03:9b:05:5a:dc:bb:94:44:d3:8d:a3:64:6c:
         e3:45:63:b3:4b:97:3a:11:89:9b:cc:58:b6:d2:02:1f:8a:6d:
         8a:e8:0d:9e:32:c4:9b:85:57:46:a1:e2:03:87:5f:55:b0:bc:
         9f:23:9e:e1:94:21:ab:25:0e:27:c4:f6:5c:00:74:41:5a:d0:
         aa:d2:38:26:27:dd:92:12:11:9c:25:e3:b5:39:f9:d4:45:bd:
         89:89:f3:d8:a0:dd:d4:b9:46:cc:b3:3e:10:25:25:00:ef:6d:
         f8:d8:37:8a:37:6a:0e:e7:62:57:1c:dd:d4:0c:77:ca:d6:47:
         1c:3b:44:ef:22:06:88:c9:86:d2:0b:ac:c2:bf:a2:cb:99:26:
         d6:33:65:71:82:d1:0e:09:75:ba:12:fd:a6:2c:43:b2:6b:8e:
         7e:35:aa:fb:b0:58:51:38:23:21:a4:19:ed:96:fd:bb:7f:f9:
         fd:fa:63:44:91:cc:62:61:c4:bf:d1:d4:fc:21:5a:75:f0:a2:
         48:61:5c:92:e3:c1:af:00
-----BEGIN CERTIFICATE-----
MIIENTCCAh2gAwIBAgIBATANBgkqhkiG9w0BAQsFADAaMQswCQYDVQQGEwJGUjEL
MAkGA1UEAwwCQ0EwHhcNMTQxMDI4MDYwODEwWhcNMTUxMDI4MDYwODEwWjAlMQsw
CQYDVQQGEwJGUjEWMBQGA1UEAwwNc3BpZGVyX3NlcnZlcjCCASIwDQYJKoZIhvcN
AQEBBQADggEPADCCAQoCggEBAM8tUFj4Tlyq9O4jPeocnV52vZNI2JlIc5V5+xsE
C9HIYhcg61Etm+O3bKVtP1BD8dHBRqAJcwqoqlniSEaXbevN/4FPG25kDAV21/jL
7JB8VOWb9OcgjmrWp7QENv1a8MZYLmrxpnm+BWOZEgJx5kKTZyjI6BmrBXlRGOtp
qw2tUxBKiknSAMc7UzJoYjtMFKlTfsZM5tVfDQPNQ/gkDiRMQcpE7H9FY1xQTswJ
L+ZLd7z7L9vEj0UALhLdg+i5dbD/4JUkEzMeKxnvq3DYje16BJZWJ1vcOXd86mCj
PkppTdDseOWKIl8hKjHTcEplLXuf4eM/xQIL2O26V8Ye2lECAwEAAaN7MHkwCQYD
VR0TBAIwADAsBglghkgBhvhCAQ0EHxYdT3BlblNTTCBHZW5lcmF0ZWQgQ2VydGlm
aWNhdGUwHQYDVR0OBBYEFEe/dwD69/I0P9ayN3d5WZKrYS4NMB8GA1UdIwQYMBaA
FJeKOQ5hWjDy7rW0PQU6oGolbs0/MA0GCSqGSIb3DQEBCwUAA4ICAQCDaca0517a
0nTROLG0DTua7kZJh0vJi/Al+RqXeE2OSeJdGNEporBPO/rYRwmJb62TfMJ7g8EI
xnXr2yQbnl6CgzRVM83jzGRdgDKurNPErati/WblPbVs/Tyd6Y8DuqaOh/WGKAOT
Jy3rdrpIap1pVmCJAsVm+MD7T+mRUOnec476MNV49xsAgl1+t2TaU/IPL9tEWjhu
1N0CxK+dNFhKrMZTX83nIS5n3ep4vAjC0CkfRwHRLeS0GgsSB/xi/+viJlWVhMbh
kAfomRGp6ZvSEY3oYcibYaLpmQ88vCCWqP6/4BA5Mw08AOaVx/2n6e28oHI+qXU6
P0eRfy/RlgqUtVf7nVtDxi3IgsvJj6axvr7ibtmfDp1q0Ne86o3Pzn9TDZTKwd0j
mGbohF65kgJfXoMxIvzB7gObBVrcu5RE042jZGzjRWOzS5c6EYmbzFi20gIfim2K
6A2eMsSbhVdGoeIDh19VsLyfI57hlCGrJQ4nxPZcAHRBWtCq0jgmJ92SEhGcJeO1
OfnURb2JifPYoN3UuUbMsz4QJSUA72342DeKN2oO52JXHN3UDHfK1kccO0TvIgaI
yYbSC6zCv6LLmSbWM2VxgtEOCXW6Ev2mLEOya45+Nar7sFhROCMhpBntlv27f/n9
+mNEkcxiYcS/0dT8IVp18KJIYVyS48GvAA==
-----END CERTIFICATE-----
